target datalayout = "e-m:e-p270:32:32-p271:32:32-p272:64:64-i64:64-i128:128-f80:128-n8:16:32:64-S128"
target triple = "x86_64-pc-linux-gnu"

%struct.PyVarObject = type { %struct._object, i64 }
%struct._object = type { %union.anon, ptr }
%union.anon = type { i64 }
%struct.testBufObject = type { %struct._object, ptr, i64 }
%struct._typeobject = type { %struct.PyVarObject, ptr, i64, i64, ptr, i64, ptr, ptr, ptr, ptr, ptr, ptr, ptr, ptr, ptr, ptr, ptr, ptr, ptr, i64, ptr, ptr, ptr, ptr, i64, ptr, ptr, ptr, ptr, ptr, ptr, ptr, ptr, ptr, i64, ptr, ptr, ptr, ptr, ptr, ptr, ptr, ptr, ptr, ptr, ptr, i32, ptr, ptr, i8, i16 }
%struct.anon = type { i32, i32 }

@.str.7 = private unnamed_addr constant [5 x i8] c"test\00", align 1

; Function Attrs: alwaysinline nounwind uwtable
define internal i32 @_Py_IsImmortal(ptr noundef %0) #3 {
  %2 = alloca ptr, align 8
  store ptr %0, ptr %2, align 8, !tbaa !3
  %3 = load ptr, ptr %2, align 8, !tbaa !3
  %4 = getelementptr inbounds nuw %struct._object, ptr %3, i32 0, i32 0
  %5 = getelementptr inbounds nuw %struct.anon, ptr %4, i32 0, i32 0
  %6 = load i32, ptr %5, align 8, !tbaa !30
  %7 = icmp slt i32 %6, 0
  %8 = zext i1 %7 to i32
  ret i32 %8
}

; Function Attrs: alwaysinline nounwind uwtable
define internal void @Py_DECREF(ptr noundef %0) #3 {
  %2 = alloca ptr, align 8
  store ptr %0, ptr %2, align 8, !tbaa !3
  %3 = load ptr, ptr %2, align 8, !tbaa !3
  %4 = call i32 @_Py_IsImmortal(ptr noundef %3)
  %5 = icmp ne i32 %4, 0
  br i1 %5, label %6, label %7

6:                                                ; preds = %1
  br label %16

7:                                                ; preds = %1
  %8 = load ptr, ptr %2, align 8, !tbaa !3
  %9 = getelementptr inbounds nuw %struct._object, ptr %8, i32 0, i32 0
  %10 = getelementptr inbounds nuw %struct.anon, ptr %9, i32 0, i32 0
  %11 = load i32, ptr %10, align 8, !tbaa !30
  %12 = add i32 %11, -1
  store i32 %12, ptr %10, align 8, !tbaa !30
  %13 = icmp eq i32 %12, 0
  br i1 %13, label %14, label %16

14:                                               ; preds = %7
  %15 = load ptr, ptr %2, align 8, !tbaa !3
  call void @_Py_Dealloc(ptr noundef %15)
  br label %16

16:                                               ; preds = %6, %14, %7
  ret void
}

; Function Attrs: nounwind uwtable
define internal ptr @testbuf_new(ptr noundef %0, ptr noundef %1, ptr noundef %2) #0 {
  %4 = alloca ptr, align 8
  %5 = alloca ptr, align 8
  %6 = alloca ptr, align 8
  %7 = alloca ptr, align 8
  %8 = alloca ptr, align 8
  %9 = alloca i32, align 4
  %10 = alloca ptr, align 8
  store ptr %0, ptr %5, align 8, !tbaa !26
  store ptr %1, ptr %6, align 8, !tbaa !3
  store ptr %2, ptr %7, align 8, !tbaa !3
  call void @llvm.lifetime.start.p0(i64 8, ptr %8) #6
  %11 = call ptr @PyBytes_FromString(ptr noundef @.str.7)
  store ptr %11, ptr %8, align 8, !tbaa !3
  %12 = load ptr, ptr %8, align 8, !tbaa !3
  %13 = icmp eq ptr %12, null
  br i1 %13, label %14, label %15

14:                                               ; preds = %3
  store ptr null, ptr %4, align 8
  store i32 1, ptr %9, align 4
  br label %33

15:                                               ; preds = %3
  call void @llvm.lifetime.start.p0(i64 8, ptr %10) #6
  %16 = load ptr, ptr %5, align 8, !tbaa !26
  %17 = getelementptr inbounds nuw %struct._typeobject, ptr %16, i32 0, i32 36
  %18 = load ptr, ptr %17, align 8, !tbaa !27
  %19 = load ptr, ptr %5, align 8, !tbaa !26
  %20 = call ptr %18(ptr noundef %19, i64 noundef 0)
  store ptr %20, ptr %10, align 8, !tbaa !8
  %21 = load ptr, ptr %10, align 8, !tbaa !8
  %22 = icmp eq ptr %21, null
  br i1 %22, label %23, label %25

23:                                               ; preds = %15
  %24 = load ptr, ptr %8, align 8, !tbaa !3
  call void @Py_DECREF(ptr noundef %24)
  store ptr null, ptr %4, align 8
  store i32 1, ptr %9, align 4
  br label %32

25:                                               ; preds = %15
  %26 = load ptr, ptr %8, align 8, !tbaa !3
  %27 = load ptr, ptr %10, align 8, !tbaa !8
  %28 = getelementptr inbounds nuw %struct.testBufObject, ptr %27, i32 0, i32 1
  store ptr %26, ptr %28, align 8, !tbaa !9
  %29 = load ptr, ptr %10, align 8, !tbaa !8
  %30 = getelementptr inbounds nuw %struct.testBufObject, ptr %29, i32 0, i32 2
  store i64 0, ptr %30, align 8, !tbaa !28
  %31 = load ptr, ptr %10, align 8, !tbaa !8
  store ptr %31, ptr %4, align 8
  store i32 1, ptr %9, align 4
  br label %32

32:                                               ; preds = %25, %23
  call void @llvm.lifetime.end.p0(i64 8, ptr %10) #6
  br label %33

33:                                               ; preds = %32, %14
  call void @llvm.lifetime.end.p0(i64 8, ptr %8) #6
  %34 = load ptr, ptr %4, align 8
  ret ptr %34
}