; Function Attrs: nounwind uwtable
define internal ptr @testbuf_new(ptr noundef %0, ptr readnone captures(none) %1, ptr readnone captures(none) %2) #0 {
  %4 = tail call ptr @PyBytes_FromString(ptr noundef nonnull @.str.7) #3
  %5 = icmp eq ptr %4, null
  br i1 %5, label %Py_DECREF.exit, label %6

6:                                                ; preds = %3
  %7 = getelementptr inbounds nuw i8, ptr %0, i64 304
  %8 = load ptr, ptr %7, align 8, !tbaa !24
  %9 = tail call ptr %8(ptr noundef %0, i64 noundef 0) #3
  %10 = icmp eq ptr %9, null
  br i1 %10, label %11, label %17

11:                                               ; preds = %6
  %12 = load i32, ptr %4, align 8, !tbaa !12
  %.not.i = icmp sgt i32 %12, -1
  br i1 %.not.i, label %13, label %Py_DECREF.exit

13:                                               ; preds = %11
  %14 = add nsw i32 %12, -1
  store i32 %14, ptr %4, align 8, !tbaa !12
  %15 = icmp eq i32 %14, 0
  br i1 %15, label %16, label %Py_DECREF.exit

16:                                               ; preds = %13
  tail call void @_Py_Dealloc(ptr noundef nonnull %4) #3
  br label %Py_DECREF.exit

17:                                               ; preds = %6
  %18 = getelementptr inbounds nuw i8, ptr %9, i64 16
  store ptr %4, ptr %18, align 8, !tbaa !3
  %19 = getelementptr inbounds nuw i8, ptr %9, i64 24
  store i64 0, ptr %19, align 8, !tbaa !25
  br label %Py_DECREF.exit

Py_DECREF.exit:                                   ; preds = %16, %13, %11, %17, %3
  %.0 = phi ptr [ null, %3 ], [ %9, %17 ], [ null, %11 ], [ null, %13 ], [ null, %16 ]
  ret ptr %.0
}